; Function Attrs: nounwind uwtable
define ptr @l_Lean_Elab_WF_GuessLex_RecCallWithContext_create(ptr noundef %0, ptr noundef %1, ptr noundef %2, ptr noundef %3, ptr noundef %4, ptr noundef %5, ptr noundef %6, ptr noundef %7, ptr noundef %8, ptr noundef %9) local_unnamed_addr #1 {
  %11 = tail call ptr @l_Lean_Elab_WF_GuessLex_SavedLocalContext_create(ptr noundef %5, ptr noundef %6, ptr noundef %7, ptr noundef %8, ptr noundef %9)
  %.val = load i32, ptr %11, align 4, !tbaa !8
  %12 = icmp eq i32 %.val, 1
  %13 = getelementptr inbounds nuw i8, ptr %11, i64 8
  %14 = load ptr, ptr %13, align 8, !tbaa !4
  br i1 %12, label %15, label %26

15:                                               ; preds = %10
  tail call void @lean_inc_heartbeat() #8
  %16 = tail call noalias ptr @mi_malloc_small(i64 noundef 56) #8
  %17 = icmp eq ptr %16, null
  br i1 %17, label %18, label %lean_alloc_ctor.exit

18:                                               ; preds = %15
  tail call void @lean_internal_panic_out_of_memory() #9
  unreachable

lean_alloc_ctor.exit:                             ; preds = %15
  %19 = getelementptr inbounds nuw i8, ptr %16, i64 4
  store i32 1, ptr %16, align 4, !tbaa !8
  store i32 393272, ptr %19, align 4
  %20 = getelementptr inbounds nuw i8, ptr %16, i64 8
  store ptr %0, ptr %20, align 8, !tbaa !4
  %21 = getelementptr inbounds nuw i8, ptr %16, i64 16
  store ptr %1, ptr %21, align 8, !tbaa !4
  %22 = getelementptr inbounds nuw i8, ptr %16, i64 24
  store ptr %2, ptr %22, align 8, !tbaa !4
  %23 = getelementptr inbounds nuw i8, ptr %16, i64 32
  store ptr %3, ptr %23, align 8, !tbaa !4
  %24 = getelementptr inbounds nuw i8, ptr %16, i64 40
  store ptr %4, ptr %24, align 8, !tbaa !4
  %25 = getelementptr inbounds nuw i8, ptr %16, i64 48
  store ptr %14, ptr %25, align 8, !tbaa !4
  store ptr %16, ptr %13, align 8, !tbaa !4
  br label %70

26:                                               ; preds = %10
  %27 = getelementptr inbounds nuw i8, ptr %11, i64 16
  %28 = load ptr, ptr %27, align 8, !tbaa !4
  %29 = ptrtoint ptr %28 to i64
  %30 = and i64 %29, 1
  %.not = icmp eq i64 %30, 0
  br i1 %.not, label %31, label %lean_inc.exit45

31:                                               ; preds = %26
  %.val.i = load i32, ptr %28, align 4, !tbaa !8
  %32 = icmp sgt i32 %.val.i, 0
  br i1 %32, label %33, label %35, !prof !11

33:                                               ; preds = %31
  %34 = add nuw i32 %.val.i, 1
  store i32 %34, ptr %28, align 4, !tbaa !8
  br label %lean_inc.exit45

35:                                               ; preds = %31
  %.not.i46 = icmp eq i32 %.val.i, 0
  br i1 %.not.i46, label %lean_inc.exit45, label %36

36:                                               ; preds = %35
  tail call void @lean_inc_ref_cold(ptr noundef nonnull %28) #8
  br label %lean_inc.exit45

lean_inc.exit45:                                  ; preds = %36, %35, %33, %26
  %37 = ptrtoint ptr %14 to i64
  %38 = and i64 %37, 1
  %.not52 = icmp eq i64 %38, 0
  br i1 %.not52, label %39, label %lean_inc.exit

39:                                               ; preds = %lean_inc.exit45
  %.val.i47 = load i32, ptr %14, align 4, !tbaa !8
  %40 = icmp sgt i32 %.val.i47, 0
  br i1 %40, label %41, label %43, !prof !11

41:                                               ; preds = %39
  %42 = add nuw i32 %.val.i47, 1
  store i32 %42, ptr %14, align 4, !tbaa !8
  br label %lean_inc.exit

43:                                               ; preds = %39
  %.not.i48 = icmp eq i32 %.val.i47, 0
  br i1 %.not.i48, label %lean_inc.exit, label %44

44:                                               ; preds = %43
  tail call void @lean_inc_ref_cold(ptr noundef nonnull %14) #8
  br label %lean_inc.exit

lean_inc.exit:                                    ; preds = %44, %43, %41, %lean_inc.exit45
  %45 = ptrtoint ptr %11 to i64
  %46 = and i64 %45, 1
  %.not53 = icmp eq i64 %46, 0
  br i1 %.not53, label %47, label %lean_dec.exit

47:                                               ; preds = %lean_inc.exit
  %48 = load i32, ptr %11, align 4, !tbaa !8
  %49 = icmp sgt i32 %48, 1
  br i1 %49, label %50, label %52, !prof !11

50:                                               ; preds = %47
  %51 = add nsw i32 %48, -1
  store i32 %51, ptr %11, align 4, !tbaa !8
  br label %lean_dec.exit

52:                                               ; preds = %47
  %.not.i = icmp eq i32 %48, 0
  br i1 %.not.i, label %lean_dec.exit, label %53

53:                                               ; preds = %52
  tail call void @lean_dec_ref_cold(ptr noundef nonnull %11) #8
  br label %lean_dec.exit

lean_dec.exit:                                    ; preds = %53, %52, %50, %lean_inc.exit
  tail call void @lean_inc_heartbeat() #8
  %54 = tail call noalias ptr @mi_malloc_small(i64 noundef 56) #8
  %55 = icmp eq ptr %54, null
  br i1 %55, label %56, label %lean_alloc_ctor.exit50

56:                                               ; preds = %lean_dec.exit
  tail call void @lean_internal_panic_out_of_memory() #9
  unreachable

lean_alloc_ctor.exit50:                           ; preds = %lean_dec.exit
  %57 = getelementptr inbounds nuw i8, ptr %54, i64 4
  store i32 1, ptr %54, align 4, !tbaa !8
  store i32 393272, ptr %57, align 4
  %58 = getelementptr inbounds nuw i8, ptr %54, i64 8
  store ptr %0, ptr %58, align 8, !tbaa !4
  %59 = getelementptr inbounds nuw i8, ptr %54, i64 16
  store ptr %1, ptr %59, align 8, !tbaa !4
  %60 = getelementptr inbounds nuw i8, ptr %54, i64 24
  store ptr %2, ptr %60, align 8, !tbaa !4
  %61 = getelementptr inbounds nuw i8, ptr %54, i64 32
  store ptr %3, ptr %61, align 8, !tbaa !4
  %62 = getelementptr inbounds nuw i8, ptr %54, i64 40
  store ptr %4, ptr %62, align 8, !tbaa !4
  %63 = getelementptr inbounds nuw i8, ptr %54, i64 48
  store ptr %14, ptr %63, align 8, !tbaa !4
  tail call void @lean_inc_heartbeat() #8
  %64 = tail call noalias ptr @mi_malloc_small(i64 noundef 24) #8
  %65 = icmp eq ptr %64, null
  br i1 %65, label %66, label %lean_alloc_ctor.exit51

66:                                               ; preds = %lean_alloc_ctor.exit50
  tail call void @lean_internal_panic_out_of_memory() #9
  unreachable

lean_alloc_ctor.exit51:                           ; preds = %lean_alloc_ctor.exit50
  %67 = getelementptr inbounds nuw i8, ptr %64, i64 4
  store i32 1, ptr %64, align 4, !tbaa !8
  store i32 131096, ptr %67, align 4
  %68 = getelementptr inbounds nuw i8, ptr %64, i64 8
  store ptr %54, ptr %68, align 8, !tbaa !4
  %69 = getelementptr inbounds nuw i8, ptr %64, i64 16
  store ptr %28, ptr %69, align 8, !tbaa !4
  br label %70

70:                                               ; preds = %lean_alloc_ctor.exit51, %lean_alloc_ctor.exit
  %.0 = phi ptr [ %11, %lean_alloc_ctor.exit ], [ %64, %lean_alloc_ctor.exit51 ]
  ret ptr %.0
}